target datalayout = "e-m:e-p270:32:32-p271:32:32-p272:64:64-i64:64-i128:128-f80:128-n8:16:32:64-S128"
target triple = "x86_64-pc-linux-gnu"

%struct.prte_oob_base_t = type { i32, i32, i32, i32, i32, %struct.pmix_list_t, i32, %struct.pmix_list_t, i32, i32, i8, ptr, ptr, ptr, ptr, i8, ptr, ptr, ptr, ptr, %struct.pmix_list_t, ptr, i32, %struct.pmix_list_t, %struct.pmix_thread_t, i8, %struct.timeval, [2 x i32], i32, i32, i32, i32, i32 }
%struct.pmix_list_t = type { %struct.pmix_object_t, %struct.pmix_list_item_t, i64 }
%struct.pmix_object_t = type { %union.pthread_mutex_t, ptr, i32, %struct.pmix_tma }
%union.pthread_mutex_t = type { %struct.__pthread_mutex_s }
%struct.__pthread_mutex_s = type { i32, i32, i32, i32, i32, i16, i16, %struct.__pthread_internal_list }
%struct.__pthread_internal_list = type { ptr, ptr }
%struct.pmix_tma = type { ptr, ptr, ptr, ptr, ptr, ptr, ptr, ptr }
%struct.pmix_list_item_t = type { %struct.pmix_object_t, ptr, ptr, i32 }
%struct.pmix_thread_t = type { %struct.pmix_object_t, ptr, ptr, i64 }
%struct.timeval = type { i64, i64 }
%struct.prte_process_info_t = type { %struct.pmix_proc, %struct.pmix_proc, ptr, %struct.pmix_proc, i32, i32, i32, ptr, ptr, i32, i8, ptr, i16, ptr, ptr, i8, ptr, i8 }
%struct.pmix_proc = type { [256 x i8], i32 }

@prte_oob_base = external global %struct.prte_oob_base_t, align 8
@prte_process_info = external global %struct.prte_process_info_t, align 8
@.str.2 = private unnamed_addr constant [25 x i8] c"rml/oob/oob_base_stubs.c\00", align 1
@.str.15 = private unnamed_addr constant [37 x i8] c"PRTE ERROR: %s in file %s at line %d\00", align 1
@.str.16 = private unnamed_addr constant [15 x i8] c"tcp://%s:%s:%s\00", align 1
@.str.17 = private unnamed_addr constant [6 x i8] c"%s;%s\00", align 1

; Function Attrs: nounwind uwtable
define void @prte_oob_base_get_addr(ptr noundef %0) #0 {
  %2 = alloca ptr, align 8
  %3 = alloca ptr, align 8
  %4 = alloca ptr, align 8
  %5 = alloca ptr, align 8
  %6 = alloca ptr, align 8
  %7 = alloca ptr, align 8
  %8 = alloca i64, align 8
  %9 = alloca i32, align 4
  %10 = alloca i32, align 4
  store ptr %0, ptr %2, align 8, !tbaa !104
  call void @llvm.lifetime.start.p0(i64 8, ptr %3) #13
  store ptr null, ptr %3, align 8, !tbaa !11
  call void @llvm.lifetime.start.p0(i64 8, ptr %4) #13
  call void @llvm.lifetime.start.p0(i64 8, ptr %5) #13
  store ptr null, ptr %5, align 8, !tbaa !11
  call void @llvm.lifetime.start.p0(i64 8, ptr %6) #13
  call void @llvm.lifetime.start.p0(i64 8, ptr %7) #13
  call void @llvm.lifetime.start.p0(i64 8, ptr %8) #13
  store i64 0, ptr %8, align 8, !tbaa !116
  call void @llvm.lifetime.start.p0(i64 4, ptr %9) #13
  %11 = call i32 @prte_util_convert_process_name_to_string(ptr noundef %3, ptr noundef @prte_process_info)
  store i32 %11, ptr %9, align 4, !tbaa !3
  %12 = load i32, ptr %9, align 4, !tbaa !3
  %13 = icmp ne i32 0, %12
  br i1 %13, label %14, label %25

14:                                               ; preds = %1
  br label %15

15:                                               ; preds = %14
  %16 = load i32, ptr %9, align 4, !tbaa !3
  %17 = icmp ne i32 -43, %16
  br i1 %17, label %18, label %21

18:                                               ; preds = %15
  %19 = load i32, ptr %9, align 4, !tbaa !3
  %20 = call ptr @prte_strerror(i32 noundef %19)
  call void (i32, ptr, ...) @pmix_output(i32 noundef 0, ptr noundef @.str.15, ptr noundef %20, ptr noundef @.str.2, i32 noundef 172)
  br label %21

21:                                               ; preds = %18, %15
  br label %22

22:                                               ; preds = %21
  br label %23

23:                                               ; preds = %22
  %24 = load ptr, ptr %2, align 8, !tbaa !104
  store ptr null, ptr %24, align 8, !tbaa !11
  store i32 1, ptr %10, align 4
  br label %71

25:                                               ; preds = %1
  %26 = load ptr, ptr %3, align 8, !tbaa !11
  %27 = call i64 @strlen(ptr noundef %26) #16
  store i64 %27, ptr %8, align 8, !tbaa !116
  %28 = load i8, ptr getelementptr inbounds nuw (%struct.prte_oob_base_t, ptr @prte_oob_base, i32 0, i32 10), align 8, !tbaa !117, !range !59, !noundef !60
  %29 = trunc i8 %28 to i1
  br i1 %29, label %47, label %30

30:                                               ; preds = %25
  %31 = load ptr, ptr getelementptr inbounds nuw (%struct.prte_oob_base_t, ptr @prte_oob_base, i32 0, i32 13), align 8, !tbaa !118
  %32 = icmp ne ptr null, %31
  br i1 %32, label %33, label %47

33:                                               ; preds = %30
  %34 = load ptr, ptr getelementptr inbounds nuw (%struct.prte_oob_base_t, ptr @prte_oob_base, i32 0, i32 13), align 8, !tbaa !118
  %35 = call ptr @PMIx_Argv_join(ptr noundef %34, i32 noundef 44)
  store ptr %35, ptr %4, align 8, !tbaa !11
  %36 = load ptr, ptr getelementptr inbounds nuw (%struct.prte_oob_base_t, ptr @prte_oob_base, i32 0, i32 14), align 8, !tbaa !119
  %37 = call ptr @PMIx_Argv_join(ptr noundef %36, i32 noundef 44)
  store ptr %37, ptr %6, align 8, !tbaa !11
  %38 = load ptr, ptr getelementptr inbounds nuw (%struct.prte_oob_base_t, ptr @prte_oob_base, i32 0, i32 21), align 8, !tbaa !120
  %39 = call ptr @PMIx_Argv_join(ptr noundef %38, i32 noundef 44)
  store ptr %39, ptr %7, align 8, !tbaa !11
  %40 = load ptr, ptr %4, align 8, !tbaa !11
  %41 = load ptr, ptr %6, align 8, !tbaa !11
  %42 = load ptr, ptr %7, align 8, !tbaa !11
  %43 = call i32 (ptr, ptr, ...) @pmix_asprintf(ptr noundef %5, ptr noundef @.str.16, ptr noundef %40, ptr noundef %41, ptr noundef %42)
  %44 = load ptr, ptr %4, align 8, !tbaa !11
  call void @free(ptr noundef %44) #13
  %45 = load ptr, ptr %6, align 8, !tbaa !11
  call void @free(ptr noundef %45) #13
  %46 = load ptr, ptr %7, align 8, !tbaa !11
  call void @free(ptr noundef %46) #13
  br label %47

47:                                               ; preds = %33, %30, %25
  %48 = load i32, ptr getelementptr inbounds nuw (%struct.prte_oob_base_t, ptr @prte_oob_base, i32 0, i32 4), align 8, !tbaa !121
  %49 = icmp slt i32 0, %48
  br i1 %49, label %50, label %62

50:                                               ; preds = %47
  %51 = load i32, ptr getelementptr inbounds nuw (%struct.prte_oob_base_t, ptr @prte_oob_base, i32 0, i32 4), align 8, !tbaa !121
  %52 = load i64, ptr %8, align 8, !tbaa !116
  %53 = load ptr, ptr %5, align 8, !tbaa !11
  %54 = call i64 @strlen(ptr noundef %53) #16
  %55 = add i64 %52, %54
  %56 = trunc i64 %55 to i32
  %57 = icmp slt i32 %51, %56
  br i1 %57, label %58, label %62

58:                                               ; preds = %50
  %59 = load ptr, ptr %3, align 8, !tbaa !11
  call void @free(ptr noundef %59) #13
  %60 = load ptr, ptr %5, align 8, !tbaa !11
  call void @free(ptr noundef %60) #13
  %61 = load ptr, ptr %2, align 8, !tbaa !104
  store ptr null, ptr %61, align 8, !tbaa !11
  store i32 1, ptr %10, align 4
  br label %71

62:                                               ; preds = %50, %47
  %63 = load ptr, ptr %3, align 8, !tbaa !11
  %64 = load ptr, ptr %5, align 8, !tbaa !11
  %65 = call i32 (ptr, ptr, ...) @pmix_asprintf(ptr noundef %4, ptr noundef @.str.17, ptr noundef %63, ptr noundef %64)
  %66 = load ptr, ptr %5, align 8, !tbaa !11
  call void @free(ptr noundef %66) #13
  %67 = load ptr, ptr %3, align 8, !tbaa !11
  call void @free(ptr noundef %67) #13
  %68 = load ptr, ptr %4, align 8, !tbaa !11
  store ptr %68, ptr %3, align 8, !tbaa !11
  %69 = load ptr, ptr %3, align 8, !tbaa !11
  %70 = load ptr, ptr %2, align 8, !tbaa !104
  store ptr %69, ptr %70, align 8, !tbaa !11
  store i32 0, ptr %10, align 4
  br label %71

71:                                               ; preds = %62, %58, %23
  call void @llvm.lifetime.end.p0(i64 4, ptr %9) #13
  call void @llvm.lifetime.end.p0(i64 8, ptr %8) #13
  call void @llvm.lifetime.end.p0(i64 8, ptr %7) #13
  call void @llvm.lifetime.end.p0(i64 8, ptr %6) #13
  call void @llvm.lifetime.end.p0(i64 8, ptr %5) #13
  call void @llvm.lifetime.end.p0(i64 8, ptr %4) #13
  call void @llvm.lifetime.end.p0(i64 8, ptr %3) #13
  %72 = load i32, ptr %10, align 4
  switch i32 %72, label %74 [
    i32 0, label %73
    i32 1, label %73
  ]

73:                                               ; preds = %71, %71
  ret void

74:                                               ; preds = %71
  unreachable
}