; Function Attrs: nounwind uwtable
define void @prte_oob_base_get_addr(ptr noundef writeonly captures(none) initializes((0, 8)) %0) local_unnamed_addr #0 {
  %2 = alloca ptr, align 8
  %3 = alloca ptr, align 8
  %4 = alloca ptr, align 8
  call void @llvm.lifetime.start.p0(i64 8, ptr nonnull %2) #15
  store ptr null, ptr %2, align 8, !tbaa !3
  call void @llvm.lifetime.start.p0(i64 8, ptr nonnull %3) #15
  call void @llvm.lifetime.start.p0(i64 8, ptr nonnull %4) #15
  store ptr null, ptr %4, align 8, !tbaa !3
  %5 = call i32 @prte_util_convert_process_name_to_string(ptr noundef nonnull %2, ptr noundef nonnull @prte_process_info) #15
  switch i32 %5, label %6 [
    i32 0, label %8
    i32 -43, label %40
  ]

6:                                                ; preds = %1
  %7 = call ptr @prte_strerror(i32 noundef %5) #15
  call void (i32, ptr, ...) @pmix_output(i32 noundef 0, ptr noundef nonnull @.str.15, ptr noundef %7, ptr noundef nonnull @.str.2, i32 noundef 172) #15
  br label %40

8:                                                ; preds = %1
  %9 = load ptr, ptr %2, align 8, !tbaa !3
  %10 = call i64 @strlen(ptr noundef nonnull dereferenceable(1) %9) #19
  %11 = load i8, ptr getelementptr inbounds nuw (i8, ptr @prte_oob_base, i64 584), align 8, !tbaa !114, !range !82, !noundef !83
  %12 = trunc nuw i8 %11 to i1
  %13 = load ptr, ptr getelementptr inbounds nuw (i8, ptr @prte_oob_base, i64 608), align 8
  %14 = icmp eq ptr %13, null
  %or.cond.not = select i1 %12, i1 true, i1 %14
  br i1 %or.cond.not, label %22, label %15

15:                                               ; preds = %8
  %16 = call ptr @PMIx_Argv_join(ptr noundef nonnull %13, i32 noundef 44) #15
  store ptr %16, ptr %3, align 8, !tbaa !3
  %17 = load ptr, ptr getelementptr inbounds nuw (i8, ptr @prte_oob_base, i64 616), align 8, !tbaa !115
  %18 = call ptr @PMIx_Argv_join(ptr noundef %17, i32 noundef 44) #15
  %19 = load ptr, ptr getelementptr inbounds nuw (i8, ptr @prte_oob_base, i64 936), align 8, !tbaa !116
  %20 = call ptr @PMIx_Argv_join(ptr noundef %19, i32 noundef 44) #15
  %21 = call i32 (ptr, ptr, ...) @pmix_asprintf(ptr noundef nonnull %4, ptr noundef nonnull @.str.16, ptr noundef %16, ptr noundef %18, ptr noundef %20) #15
  call void @free(ptr noundef %16) #15
  call void @free(ptr noundef %18) #15
  call void @free(ptr noundef %20) #15
  br label %22

22:                                               ; preds = %15, %8
  %23 = load i32, ptr getelementptr inbounds nuw (i8, ptr @prte_oob_base, i64 16), align 8, !tbaa !117
  %24 = icmp sgt i32 %23, 0
  br i1 %24, label %25, label %._crit_edge

._crit_edge:                                      ; preds = %22
  %.pre = load ptr, ptr %2, align 8, !tbaa !3
  %.pre16 = load ptr, ptr %4, align 8, !tbaa !3
  br label %33

25:                                               ; preds = %22
  %26 = load ptr, ptr %4, align 8, !tbaa !3
  %27 = call i64 @strlen(ptr noundef nonnull dereferenceable(1) %26) #19
  %28 = add i64 %27, %10
  %29 = trunc i64 %28 to i32
  %30 = icmp slt i32 %23, %29
  %.pre15 = load ptr, ptr %2, align 8, !tbaa !3
  br i1 %30, label %31, label %33

31:                                               ; preds = %25
  call void @free(ptr noundef %.pre15) #15
  %32 = load ptr, ptr %4, align 8, !tbaa !3
  call void @free(ptr noundef %32) #15
  br label %40

33:                                               ; preds = %._crit_edge, %25
  %34 = phi ptr [ %.pre16, %._crit_edge ], [ %26, %25 ]
  %35 = phi ptr [ %.pre, %._crit_edge ], [ %.pre15, %25 ]
  %36 = call i32 (ptr, ptr, ...) @pmix_asprintf(ptr noundef nonnull %3, ptr noundef nonnull @.str.17, ptr noundef %35, ptr noundef %34) #15
  %37 = load ptr, ptr %4, align 8, !tbaa !3
  call void @free(ptr noundef %37) #15
  %38 = load ptr, ptr %2, align 8, !tbaa !3
  call void @free(ptr noundef %38) #15
  %39 = load ptr, ptr %3, align 8, !tbaa !3
  br label %40

40:                                               ; preds = %6, %1, %33, %31
  %.sink = phi ptr [ %39, %33 ], [ null, %31 ], [ null, %1 ], [ null, %6 ]
  store ptr %.sink, ptr %0, align 8, !tbaa !3
  call void @llvm.lifetime.end.p0(i64 8, ptr nonnull %4) #15
  call void @llvm.lifetime.end.p0(i64 8, ptr nonnull %3) #15
  call void @llvm.lifetime.end.p0(i64 8, ptr nonnull %2) #15
  ret void
}